; Function Attrs: nounwind uwtable
define ptr @l_Lean_mkStateFromImportedEntries___at_Lean_initFn____x40_Lean_ResolveName___hyg_392____spec__1___boxed(ptr noundef %0, ptr noundef %1) local_unnamed_addr #1 {
  %3 = getelementptr i8, ptr %1, i64 8
  %.val.i = load i64, ptr %3, align 8, !tbaa !12
  %.mask.i = and i64 %.val.i, 9223372036854775807
  %.not.i4 = icmp eq i64 %.mask.i, 0
  br i1 %.not.i4, label %l_Lean_mkStateFromImportedEntries___at_Lean_initFn____x40_Lean_ResolveName___hyg_392____spec__1.exit, label %lean_dec.exit.i

lean_dec.exit.i:                                  ; preds = %2
  %4 = tail call ptr @l_Array_foldlMUnsafe_fold___at_Lean_initFn____x40_Lean_ResolveName___hyg_392____spec__3(ptr noundef nonnull readonly %1, i64 noundef 0, i64 noundef %.mask.i, ptr noundef %0)
  br label %l_Lean_mkStateFromImportedEntries___at_Lean_initFn____x40_Lean_ResolveName___hyg_392____spec__1.exit

l_Lean_mkStateFromImportedEntries___at_Lean_initFn____x40_Lean_ResolveName___hyg_392____spec__1.exit: ; preds = %2, %lean_dec.exit.i
  %.0.i = phi ptr [ %4, %lean_dec.exit.i ], [ %0, %2 ]
  %5 = ptrtoint ptr %1 to i64
  %6 = and i64 %5, 1
  %.not = icmp eq i64 %6, 0
  br i1 %.not, label %7, label %lean_dec.exit

7:                                                ; preds = %l_Lean_mkStateFromImportedEntries___at_Lean_initFn____x40_Lean_ResolveName___hyg_392____spec__1.exit
  %8 = load i32, ptr %1, align 4, !tbaa !4
  %9 = icmp sgt i32 %8, 1
  br i1 %9, label %10, label %12, !prof !11

10:                                               ; preds = %7
  %11 = add nsw i32 %8, -1
  store i32 %11, ptr %1, align 4, !tbaa !4
  br label %lean_dec.exit

12:                                               ; preds = %7
  %.not.i = icmp eq i32 %8, 0
  br i1 %.not.i, label %lean_dec.exit, label %13

13:                                               ; preds = %12
  tail call void @lean_dec_ref_cold(ptr noundef nonnull %1) #6
  br label %lean_dec.exit

lean_dec.exit:                                    ; preds = %13, %12, %10, %l_Lean_mkStateFromImportedEntries___at_Lean_initFn____x40_Lean_ResolveName___hyg_392____spec__1.exit
  ret ptr %.0.i
}